; Function Attrs: mustprogress nofree norecurse nosync nounwind willreturn memory(argmem: readwrite) uwtable
define void @EVP_PKEY_meth_get_digestverify(ptr noundef readonly captures(none) %0, ptr noundef writeonly captures(address_is_null) %1) local_unnamed_addr #4 {
  %.not = icmp eq ptr %1, null
  br i1 %.not, label %6, label %3

3:                                                ; preds = %2
  %4 = getelementptr inbounds nuw i8, ptr %0, i64 216
  %5 = load ptr, ptr %4, align 8, !tbaa !133
  store ptr %5, ptr %1, align 8, !tbaa !13
  br label %6

6:                                                ; preds = %3, %2
  ret void
}